target datalayout = "e-m:e-p270:32:32-p271:32:32-p272:64:64-i64:64-i128:128-f80:128-n8:16:32:64-S128"
target triple = "x86_64-pc-linux-gnu"

; Function Attrs: nounwind uwtable
define i32 @hwloc_pcidisc_check_bridge_type(i32 noundef %0, ptr noundef %1) #0 {
  %3 = alloca i32, align 4
  %4 = alloca i32, align 4
  %5 = alloca ptr, align 8
  %6 = alloca i8, align 1
  %7 = alloca i32, align 4
  store i32 %0, ptr %4, align 4, !tbaa !40
  store ptr %1, ptr %5, align 8, !tbaa !38
  call void @llvm.lifetime.start.p0(i64 1, ptr %6) #12
  %8 = load i32, ptr %4, align 4, !tbaa !40
  %9 = icmp ne i32 %8, 1540
  br i1 %9, label %10, label %11

10:                                               ; preds = %2
  store i32 17, ptr %3, align 4
  store i32 1, ptr %7, align 4
  br label %22

11:                                               ; preds = %2
  %12 = load ptr, ptr %5, align 8, !tbaa !38
  %13 = getelementptr inbounds i8, ptr %12, i64 14
  %14 = load i8, ptr %13, align 1, !tbaa !44
  %15 = zext i8 %14 to i32
  %16 = and i32 %15, 127
  %17 = trunc i32 %16 to i8
  store i8 %17, ptr %6, align 1, !tbaa !44
  %18 = load i8, ptr %6, align 1, !tbaa !44
  %19 = zext i8 %18 to i32
  %20 = icmp eq i32 %19, 1
  %21 = select i1 %20, i32 16, i32 17
  store i32 %21, ptr %3, align 4
  store i32 1, ptr %7, align 4
  br label %22

22:                                               ; preds = %11, %10
  call void @llvm.lifetime.end.p0(i64 1, ptr %6) #12
  %23 = load i32, ptr %3, align 4
  ret i32 %23
}