; Function Attrs: mustprogress nofree norecurse nosync nounwind willreturn memory(argmem: read) uwtable
define range(i32 16, 18) i32 @hwloc_pcidisc_check_bridge_type(i32 noundef %0, ptr noundef readonly captures(none) %1) local_unnamed_addr #13 {
  %.not = icmp eq i32 %0, 1540
  br i1 %.not, label %3, label %9

3:                                                ; preds = %2
  %4 = getelementptr inbounds nuw i8, ptr %1, i64 14
  %5 = load i8, ptr %4, align 1, !tbaa !35
  %6 = and i8 %5, 127
  %7 = icmp eq i8 %6, 1
  %8 = select i1 %7, i32 16, i32 17
  br label %9

9:                                                ; preds = %2, %3
  %.0 = phi i32 [ %8, %3 ], [ 17, %2 ]
  ret i32 %.0
}